; Function Attrs: mustprogress noinline uwtable
define internal fastcc noundef nonnull align 8 dereferenceable(16) ptr @_ZN4absl12lts_2024072212log_internal10LogMessagelsIPN9grpc_core12_GLOBAL__N_110RoundRobin22RoundRobinEndpointListETnNSt9enable_ifIXntsr4absl16HasAbslStringifyIT_EE5valueEiE4typeELi0EEERS2_RKSA_(ptr noundef nonnull readonly returned align 8 dereferenceable(16) %0, ptr %.0.val) unnamed_addr #20 align 2 personality ptr @__gxx_personality_v0 {
  %2 = alloca %"class.absl::lts_20240722::log_internal::LogMessage::OstreamView", align 8
  call void @llvm.lifetime.start.p0(i64 120, ptr nonnull %2) #30
  %3 = getelementptr inbounds nuw i8, ptr %0, i64 8
  %4 = load ptr, ptr %3, align 8, !tbaa !67
  call void @_ZN4absl12lts_2024072212log_internal10LogMessage11OstreamViewC1ERNS2_14LogMessageDataE(ptr noundef nonnull align 8 dereferenceable(120) %2, ptr noundef nonnull align 1 %4)
  %5 = invoke noundef nonnull align 8 dereferenceable(8) ptr @_ZN4absl12lts_2024072212log_internal10LogMessage11OstreamView6streamEv(ptr noundef nonnull align 8 dereferenceable(120) %2)
          to label %6 unwind label %8

6:                                                ; preds = %1
  %7 = invoke noundef nonnull align 8 dereferenceable(8) ptr @_ZNSo9_M_insertIPKvEERSoT_(ptr noundef nonnull align 8 dereferenceable(8) %5, ptr noundef %.0.val)
          to label %_ZNSolsEPKv.exit unwind label %8

_ZNSolsEPKv.exit:                                 ; preds = %6
  call void @_ZN4absl12lts_2024072212log_internal10LogMessage11OstreamViewD1Ev(ptr noundef nonnull align 8 dereferenceable(120) %2) #30
  call void @llvm.lifetime.end.p0(i64 120, ptr nonnull %2) #30
  ret ptr %0

8:                                                ; preds = %6, %1
  %9 = landingpad { ptr, i32 }
          cleanup
  call void @_ZN4absl12lts_2024072212log_internal10LogMessage11OstreamViewD1Ev(ptr noundef nonnull align 8 dereferenceable(120) %2) #30
  call void @llvm.lifetime.end.p0(i64 120, ptr nonnull %2) #30
  resume { ptr, i32 } %9
}